; Function Attrs: mustprogress nofree norecurse nosync nounwind willreturn memory(read, inaccessiblemem: none) uwtable
define hidden noundef i32 @_ZN5zxing13GenericGFPoly14getCoefficientEi(ptr noundef nonnull readonly align 8 captures(none) dereferenceable(48) %0, i32 noundef %1) local_unnamed_addr #8 align 2 {
  %3 = getelementptr inbounds nuw i8, ptr %0, i64 40
  %4 = load ptr, ptr %3, align 8, !tbaa !13
  %5 = getelementptr inbounds nuw i8, ptr %4, i64 16
  %6 = getelementptr inbounds nuw i8, ptr %4, i64 24
  %7 = load ptr, ptr %6, align 8, !tbaa !16
  %8 = load ptr, ptr %5, align 8, !tbaa !19
  %9 = ptrtoint ptr %7 to i64
  %10 = ptrtoint ptr %8 to i64
  %11 = sub i64 %9, %10
  %12 = lshr exact i64 %11, 2
  %13 = trunc i64 %12 to i32
  %14 = xor i32 %1, -1
  %15 = add i32 %13, %14
  %16 = sext i32 %15 to i64
  %17 = getelementptr inbounds nuw i32, ptr %8, i64 %16
  %18 = load i32, ptr %17, align 4, !tbaa !28
  ret i32 %18
}